; Function Attrs: nounwind uwtable
define range(i32 0, -1) i32 @Gia_PolynCoreDupTreePlus_rec(ptr noundef %0, ptr noundef %1, ptr noundef %2) local_unnamed_addr #0 {
  %4 = getelementptr inbounds nuw i8, ptr %2, i64 8
  %5 = load i32, ptr %4, align 4, !tbaa !71
  %.not = icmp eq i32 %5, -1
  br i1 %.not, label %6, label %common.ret12

common.ret12:                                     ; preds = %3, %6
  %common.ret12.op = phi i32 [ %36, %6 ], [ %5, %3 ]
  ret i32 %common.ret12.op

6:                                                ; preds = %3
  %7 = load i64, ptr %2, align 4
  %8 = and i64 %7, 536870911
  %9 = sub nsw i64 0, %8
  %10 = getelementptr inbounds %struct.Gia_Obj_t_, ptr %2, i64 %9
  %11 = tail call i32 @Gia_PolynCoreDupTreePlus_rec(ptr noundef %0, ptr noundef %1, ptr noundef nonnull %10)
  %12 = load i64, ptr %2, align 4
  %13 = lshr i64 %12, 32
  %14 = and i64 %13, 536870911
  %15 = sub nsw i64 0, %14
  %16 = getelementptr inbounds %struct.Gia_Obj_t_, ptr %2, i64 %15
  %17 = tail call i32 @Gia_PolynCoreDupTreePlus_rec(ptr noundef %0, ptr noundef %1, ptr noundef nonnull %16)
  %18 = load i64, ptr %2, align 4
  %19 = and i64 %18, 536870911
  %20 = sub nsw i64 0, %19
  %21 = getelementptr inbounds %struct.Gia_Obj_t_, ptr %2, i64 %20, i32 1
  %22 = load i32, ptr %21, align 4, !tbaa !71
  %23 = trunc i64 %18 to i32
  %24 = lshr i32 %23, 29
  %25 = and i32 %24, 1
  %26 = xor i32 %25, %22
  %27 = lshr i64 %18, 32
  %28 = and i64 %27, 536870911
  %29 = sub nsw i64 0, %28
  %30 = getelementptr inbounds %struct.Gia_Obj_t_, ptr %2, i64 %29, i32 1
  %31 = load i32, ptr %30, align 4, !tbaa !71
  %32 = lshr i64 %18, 61
  %33 = trunc nuw nsw i64 %32 to i32
  %34 = and i32 %33, 1
  %35 = xor i32 %34, %31
  %36 = tail call fastcc i32 @Gia_ManAppendAnd(ptr noundef %0, i32 noundef %26, i32 noundef %35)
  store i32 %36, ptr %4, align 4, !tbaa !71
  br label %common.ret12
}